target datalayout = "e-m:e-p270:32:32-p271:32:32-p272:64:64-i64:64-i128:128-f80:128-n8:16:32:64-S128"
target triple = "x86_64-pc-linux-gnu"

%class.symbol = type { ptr }
%"class.euf::theory_checker" = type { ptr, %class.scoped_ptr_vector, %class.map }
%class.scoped_ptr_vector = type { %class.ptr_vector }
%class.ptr_vector = type { %class.vector }
%class.vector = type { ptr }
%class.map = type { %class.table2map }
%class.table2map = type { %class.core_hashtable }
%class.core_hashtable = type <{ ptr, i32, i32, i32, [4 x i8] }>
%class.svector.21 = type { %class.vector.22 }
%class.vector.22 = type { ptr }
%class.params_ref = type { ptr }
%"class.euf::smt_proof_checker" = type <{ ptr, %class.params_ref, %"class.euf::theory_checker", %class.scoped_ptr, %class.symbol, %"class.sat::solver", %"class.sat::drat", %class.svector.74, %class.svector.74, i8, [7 x i8], %class.map.99, %class.map.99, i32, [4 x i8] }>
%class.scoped_ptr = type { ptr }
%"class.sat::solver" = type { %"class.sat::solver_core", i8, [7 x i8], %"struct.sat::config", %"struct.sat::stats", %class.scoped_ptr.46, %class.scoped_ptr.47, ptr, %"class.sat::drat", [2 x %"class.sat::clause_allocator"], i8, %class.random_gen, %"class.sat::cleaner", %class.svector.59, %"class.sat::model_converter", i8, %"class.sat::simplifier", %"class.sat::scc", %"class.sat::asymm_branch", %"class.sat::probing", i8, [7 x i8], %"class.sat::mus", i8, i8, [6 x i8], %"class.sat::justification", %"class.sat::literal", %class.ptr_vector.68, %class.ptr_vector.68, i32, %class.svector.21, %class.svector.21, %class.svector.21, %class.svector.21, %class.vector.84, %class.svector.59, %class.svector.85, %class.svector.62, %class.svector.62, %class.svector.62, %class.svector.62, %class.svector.62, %class.svector.21, %class.svector.21, i32, %class.svector.74, %class.svector.21, i32, %class.svector, %class.svector, %class.svector, %class.svector, %class.svector, i32, double, %class.svector.62, %class.svector.62, %class.svector.62, i8, %class.svector.72, i32, i32, i32, i32, i32, i32, %"struct.sat::backoff", i32, i32, %"struct.sat::backoff", %"struct.sat::backoff", %class.var_queue, i32, i32, i32, %class.ema, %class.ema, %class.ema, %class.ema, %class.ema, %class.svector.74, %class.svector.76, %"class.std::__cxx11::basic_string", i8, i8, %class.visit_helper, %class.svector.87, %class.scoped_limit_trail, %class.stopwatch, %class.params_ref, %"struct.sat::no_drat_params", %class.scoped_ptr.89, %class.svector.74, %"class.sat::literal_set", %"class.sat::literal_set", %class.svector.74, i32, i32, i32, i32, i8, ptr, ptr, %class.statistics, i32, i32, i32, i32, i8, i32, i32, i32, i32, i32, i32, i32, double, i32, double, i8, i8, %class.svector.74, i8, %class.svector, i32, i32, i32, %class.svector.74, %class.svector.74, %class.svector.72, %class.svector.21, %class.approx_set_tpl, %class.svector.74, %class.svector.74, %class.vector.58, %class.svector.74, %class.svector.82, %class.u_map.94, %class.svector.74 }
%"class.sat::solver_core" = type { ptr, ptr }
%"struct.sat::config" = type <{ i64, i32, i32, i32, i8, [3 x i8], i32, i32, double, i32, i8, [3 x i8], i32, i8, [3 x i8], i32, [4 x i8], double, double, i32, i32, double, double, i32, [4 x i8], %class.symbol, double, i32, i32, i8, [3 x i8], i32, i32, i8, [3 x i8], i32, i8, [3 x i8], i32, i8, [3 x i8], i32, i8, i8, [2 x i8], i32, i8, i8, i8, i8, i8, i8, i8, i8, i32, i8, i8, i8, i8, i32, double, i32, [4 x i8], double, double, double, double, i32, i8, i8, [2 x i8], double, i8, i8, [2 x i8], i32, double, i32, i32, i32, i32, i32, i32, i32, i32, i8, i8, i8, i8, i32, i32, i8, i8, i8, i8, i8, i8, i8, [5 x i8], %class.symbol, i8, i8, i8, i8, i8, i8, [2 x i8], i32, i32, i32, i8, [3 x i8], double, double, double, double, double, i8, [7 x i8] }>
%"struct.sat::stats" = type { i32, i32, i32, i32, i32, i32, i32, i32, i32, i32, i32, i32, i32, i32, i32, i32, i32, i32, i32, i32, i32 }
%class.scoped_ptr.46 = type { ptr }
%class.scoped_ptr.47 = type { ptr }
%"class.sat::clause_allocator" = type { %class.sat_allocator, %class.id_gen }
%class.sat_allocator = type { ptr, i64, %class.ptr_vector.50, ptr, [65 x %class.ptr_vector.52] }
%class.ptr_vector.50 = type { %class.vector.51 }
%class.vector.51 = type { ptr }
%class.ptr_vector.52 = type { %class.vector.53 }
%class.vector.53 = type { ptr }
%class.id_gen = type { i32, %class.svector.21 }
%class.random_gen = type { i32 }
%"class.sat::cleaner" = type { ptr, i32, i32, i32, i32 }
%"class.sat::model_converter" = type { %class.vector.61, i32, %class.svector.62, ptr, %class.svector.64 }
%class.vector.61 = type { ptr }
%class.svector.64 = type { %class.vector.65 }
%class.vector.65 = type { ptr }
%"class.sat::simplifier" = type { ptr, i32, %"class.sat::use_list", %"class.sat::ext_use_list", %"class.sat::clause_set", %class.svector.70, i32, %class.tracked_uint_set, i8, %"class.sat::tmp_clause", %class.svector.72, i32, i32, i8, i8, i8, i8, i32, i8, i8, i32, i8, i32, i8, i8, i32, i32, i32, i32, i32, i32, i32, i32, i32, i32, i8, i32, i8, i8, i32, i32, i32, i32, i32, i32, i32, i32, i32, i32, i32, i8, i32, %class.ptr_vector.68, %class.svector.74, %class.svector.76, %class.svector.76, %class.svector.74 }
%"class.sat::use_list" = type { %class.vector.66 }
%class.vector.66 = type { ptr }
%"class.sat::ext_use_list" = type { %class.vector.67 }
%class.vector.67 = type { ptr }
%"class.sat::clause_set" = type { %class.svector.21, %class.ptr_vector.68 }
%class.svector.70 = type { %class.vector.71 }
%class.vector.71 = type { ptr }
%class.tracked_uint_set = type { %class.svector.72, %class.svector.21 }
%"class.sat::tmp_clause" = type { ptr }
%"class.sat::scc" = type { ptr, i8, i8, i32, i32, %"class.sat::big" }
%"class.sat::big" = type { ptr, i32, %class.vector.78, %class.svector.62, %class.svector.6, %class.svector.6, %class.svector.74, %class.svector.74, i8, i8, %class.vector.78 }
%class.svector.6 = type { %class.vector.7 }
%class.vector.7 = type { ptr }
%class.vector.78 = type { ptr }
%"class.sat::asymm_branch" = type { ptr, %class.params_ref, i64, %class.random_gen, i32, i32, i8, i32, i32, i8, i8, i64, i32, i32, i32, %class.svector.74, %class.svector.74, %class.svector.79, %class.svector.79, %class.svector.74, %class.svector.74 }
%class.svector.79 = type { %class.vector.80 }
%class.vector.80 = type { ptr }
%"class.sat::probing" = type { ptr, i32, %"class.sat::literal_set", %class.svector.74, i32, i8, i32, i8, i8, i64, i32, %class.vector.81, %class.svector.82, %"class.sat::big" }
%class.vector.81 = type { ptr }
%"class.sat::mus" = type <{ ptr, %class.svector.74, %class.svector.74, i8, [7 x i8], %class.svector.59, i32, [4 x i8] }>
%"class.sat::justification" = type <{ i32, [4 x i8], i64, i32, [4 x i8] }>
%"class.sat::literal" = type { i32 }
%class.ptr_vector.68 = type { %class.vector.69 }
%class.vector.69 = type { ptr }
%class.vector.84 = type { ptr }
%class.svector.59 = type { %class.vector.60 }
%class.vector.60 = type { ptr }
%class.svector.85 = type { %class.vector.86 }
%class.vector.86 = type { ptr }
%class.svector.62 = type { %class.vector.63 }
%class.vector.63 = type { ptr }
%"struct.sat::backoff" = type { i32, i32, i32, i32, i32 }
%class.var_queue = type { %class.heap }
%class.heap = type { %"struct.var_queue<svector<unsigned int>>::lt", %class.svector.6, %class.svector.6 }
%"struct.var_queue<svector<unsigned int>>::lt" = type { ptr }
%class.ema = type { double, double, double, i32, i32 }
%class.svector.76 = type { %class.vector.77 }
%class.vector.77 = type { ptr }
%"class.std::__cxx11::basic_string" = type { %"struct.std::__cxx11::basic_string<char>::_Alloc_hider", i64, %union.anon }
%"struct.std::__cxx11::basic_string<char>::_Alloc_hider" = type { ptr }
%union.anon = type { i64, [8 x i8] }
%class.visit_helper = type { %class.svector.21, i32, i32 }
%class.svector.87 = type { %class.vector.88 }
%class.vector.88 = type { ptr }
%class.scoped_limit_trail = type { %class.svector.21, i32, i32 }
%class.stopwatch = type <{ %"class.std::chrono::time_point", %"class.std::chrono::duration", i8, [7 x i8] }>
%"class.std::chrono::time_point" = type { %"class.std::chrono::duration" }
%"class.std::chrono::duration" = type { i64 }
%"struct.sat::no_drat_params" = type { %class.params_ref }
%class.scoped_ptr.89 = type { ptr }
%"class.sat::literal_set" = type { %class.tracked_uint_set }
%class.statistics = type { %class.svector.90, %class.svector.92 }
%class.svector.90 = type { %class.vector.91 }
%class.vector.91 = type { ptr }
%class.svector.92 = type { %class.vector.93 }
%class.vector.93 = type { ptr }
%class.svector = type { %class.vector.0 }
%class.vector.0 = type { ptr }
%class.svector.72 = type { %class.vector.73 }
%class.vector.73 = type { ptr }
%class.approx_set_tpl = type { i32 }
%class.vector.58 = type { ptr }
%class.svector.82 = type { %class.vector.83 }
%class.vector.83 = type { ptr }
%class.u_map.94 = type { %class.map.95 }
%class.map.95 = type { %class.table2map.96 }
%class.table2map.96 = type { %class.core_hashtable.97 }
%class.core_hashtable.97 = type <{ ptr, i32, i32, i32, [4 x i8] }>
%"class.sat::drat" = type { ptr, %class.svector.48, ptr, %"class.sat::clause_allocator", ptr, ptr, %class.svector.54, %class.svector.56, %class.vector.58, %class.svector.59, i8, i8, i8, i8, i8, %"struct.sat::drat::stats" }
%class.svector.48 = type { %class.vector.49 }
%class.vector.49 = type { ptr }
%class.svector.54 = type { %class.vector.55 }
%class.vector.55 = type { ptr }
%class.svector.56 = type { %class.vector.57 }
%class.vector.57 = type { ptr }
%"struct.sat::drat::stats" = type { i32, i32, i32, i32 }
%class.svector.74 = type { %class.vector.75 }
%class.vector.75 = type { ptr }
%class.map.99 = type { %class.table2map.100 }
%class.table2map.100 = type { %class.core_hashtable.101 }
%class.core_hashtable.101 = type <{ ptr, i32, i32, i32, [4 x i8] }>
%"struct.std::pair.163" = type { %"class.sat::literal", ptr }

; Function Attrs: mustprogress uwtable
define linkonce_odr hidden noundef nonnull align 8 dereferenceable(8) ptr @_ZN6vectorIN3sat7literalELb0EjE9push_backERKS1_(ptr noundef nonnull align 8 dereferenceable(8) %0, ptr noundef nonnull align 4 dereferenceable(4) %1) #4 comdat align 2 {
  %3 = alloca ptr, align 8
  %4 = alloca ptr, align 8
  store ptr %0, ptr %3, align 8, !tbaa !313
  store ptr %1, ptr %4, align 8, !tbaa !730
  %5 = load ptr, ptr %3, align 8
  %6 = getelementptr inbounds nuw %class.vector.75, ptr %5, i32 0, i32 0
  %7 = load ptr, ptr %6, align 8, !tbaa !330
  %8 = icmp eq ptr %7, null
  br i1 %8, label %19, label %9

9:                                                ; preds = %2
  %10 = getelementptr inbounds nuw %class.vector.75, ptr %5, i32 0, i32 0
  %11 = load ptr, ptr %10, align 8, !tbaa !330
  %12 = getelementptr inbounds i32, ptr %11, i64 -1
  %13 = load i32, ptr %12, align 4, !tbaa !121
  %14 = getelementptr inbounds nuw %class.vector.75, ptr %5, i32 0, i32 0
  %15 = load ptr, ptr %14, align 8, !tbaa !330
  %16 = getelementptr inbounds i32, ptr %15, i64 -2
  %17 = load i32, ptr %16, align 4, !tbaa !121
  %18 = icmp eq i32 %13, %17
  br i1 %18, label %19, label %20

19:                                               ; preds = %9, %2
  call void @_ZN6vectorIN3sat7literalELb0EjE13expand_vectorEv(ptr noundef nonnull align 8 dereferenceable(8) %5)
  br label %20

20:                                               ; preds = %19, %9
  %21 = getelementptr inbounds nuw %class.vector.75, ptr %5, i32 0, i32 0
  %22 = load ptr, ptr %21, align 8, !tbaa !330
  %23 = getelementptr inbounds nuw %class.vector.75, ptr %5, i32 0, i32 0
  %24 = load ptr, ptr %23, align 8, !tbaa !330
  %25 = getelementptr inbounds i32, ptr %24, i64 -1
  %26 = load i32, ptr %25, align 4, !tbaa !121
  %27 = zext i32 %26 to i64
  %28 = getelementptr inbounds nuw %"class.sat::literal", ptr %22, i64 %27
  %29 = load ptr, ptr %4, align 8, !tbaa !730
  call void @llvm.memcpy.p0.p0.i64(ptr align 4 %28, ptr align 4 %29, i64 4, i1 false), !tbaa.struct !731
  %30 = getelementptr inbounds nuw %class.vector.75, ptr %5, i32 0, i32 0
  %31 = load ptr, ptr %30, align 8, !tbaa !330
  %32 = getelementptr inbounds i32, ptr %31, i64 -1
  %33 = load i32, ptr %32, align 4, !tbaa !121
  %34 = add i32 %33, 1
  store i32 %34, ptr %32, align 4, !tbaa !121
  ret ptr %5
}

; Function Attrs: mustprogress nounwind uwtable
define linkonce_odr hidden noundef nonnull align 8 dereferenceable(16) ptr @_ZNK6vectorISt4pairIN3sat7literalEPNS1_6clauseEELb0EjEixEj(ptr noundef nonnull align 8 dereferenceable(8) %0, i32 noundef %1) #5 comdat align 2 {
  %3 = alloca ptr, align 8
  %4 = alloca i32, align 4
  store ptr %0, ptr %3, align 8, !tbaa !727
  store i32 %1, ptr %4, align 4, !tbaa !121
  %5 = load ptr, ptr %3, align 8
  %6 = getelementptr inbounds nuw %class.vector.57, ptr %5, i32 0, i32 0
  %7 = load ptr, ptr %6, align 8, !tbaa !729
  %8 = load i32, ptr %4, align 4, !tbaa !121
  %9 = zext i32 %8 to i64
  %10 = getelementptr inbounds nuw %"struct.std::pair.163", ptr %7, i64 %9
  ret ptr %10
}

; Function Attrs: mustprogress nounwind uwtable
define linkonce_odr hidden noundef i32 @_ZNK6vectorISt4pairIN3sat7literalEPNS1_6clauseEELb0EjE4sizeEv(ptr noundef nonnull align 8 dereferenceable(8) %0) #5 comdat align 2 {
  %2 = alloca i32, align 4
  %3 = alloca ptr, align 8
  store ptr %0, ptr %3, align 8, !tbaa !727
  %4 = load ptr, ptr %3, align 8
  %5 = getelementptr inbounds nuw %class.vector.57, ptr %4, i32 0, i32 0
  %6 = load ptr, ptr %5, align 8, !tbaa !729
  %7 = icmp eq ptr %6, null
  br i1 %7, label %8, label %9

8:                                                ; preds = %1
  store i32 0, ptr %2, align 4
  br label %14

9:                                                ; preds = %1
  %10 = getelementptr inbounds nuw %class.vector.57, ptr %4, i32 0, i32 0
  %11 = load ptr, ptr %10, align 8, !tbaa !729
  %12 = getelementptr inbounds i32, ptr %11, i64 -1
  %13 = load i32, ptr %12, align 4, !tbaa !121
  store i32 %13, ptr %2, align 4
  br label %14

14:                                               ; preds = %9, %8
  %15 = load i32, ptr %2, align 4
  ret i32 %15
}

; Function Attrs: mustprogress nounwind uwtable
define linkonce_odr hidden noundef nonnull align 8 dereferenceable(8) ptr @_ZN3sat4drat5unitsEv(ptr noundef nonnull align 8 dereferenceable(664) %0) #5 comdat align 2 {
  %2 = alloca ptr, align 8
  store ptr %0, ptr %2, align 8, !tbaa !725
  %3 = load ptr, ptr %2, align 8
  %4 = getelementptr inbounds nuw %"class.sat::drat", ptr %3, i32 0, i32 7
  ret ptr %4
}

; Function Attrs: mustprogress nounwind uwtable
define linkonce_odr hidden noundef ptr @_ZNK6vectorIN3sat7literalELb0EjE4dataEv(ptr noundef nonnull align 8 dereferenceable(8) %0) #5 comdat align 2 {
  %2 = alloca ptr, align 8
  store ptr %0, ptr %2, align 8, !tbaa !313
  %3 = load ptr, ptr %2, align 8
  %4 = getelementptr inbounds nuw %class.vector.75, ptr %3, i32 0, i32 0
  %5 = load ptr, ptr %4, align 8, !tbaa !330
  ret ptr %5
}

; Function Attrs: mustprogress nounwind uwtable
define linkonce_odr hidden noundef i32 @_ZNK6vectorIN3sat7literalELb0EjE4sizeEv(ptr noundef nonnull align 8 dereferenceable(8) %0) #5 comdat align 2 {
  %2 = alloca i32, align 4
  %3 = alloca ptr, align 8
  store ptr %0, ptr %3, align 8, !tbaa !313
  %4 = load ptr, ptr %3, align 8
  %5 = getelementptr inbounds nuw %class.vector.75, ptr %4, i32 0, i32 0
  %6 = load ptr, ptr %5, align 8, !tbaa !330
  %7 = icmp eq ptr %6, null
  br i1 %7, label %8, label %9

8:                                                ; preds = %1
  store i32 0, ptr %2, align 4
  br label %14

9:                                                ; preds = %1
  %10 = getelementptr inbounds nuw %class.vector.75, ptr %4, i32 0, i32 0
  %11 = load ptr, ptr %10, align 8, !tbaa !330
  %12 = getelementptr inbounds i32, ptr %11, i64 -1
  %13 = load i32, ptr %12, align 4, !tbaa !121
  store i32 %13, ptr %2, align 4
  br label %14

14:                                               ; preds = %9, %8
  %15 = load i32, ptr %2, align 4
  ret i32 %15
}

; Function Attrs: mustprogress uwtable
define linkonce_odr hidden void @_ZN3euf17smt_proof_checker9add_unitsEv(ptr noundef nonnull align 8 dereferenceable(5076) %0) #4 comdat align 2 {
  %2 = alloca ptr, align 8
  %3 = alloca ptr, align 8
  %4 = alloca i32, align 4
  store ptr %0, ptr %2, align 8, !tbaa !141
  %5 = load ptr, ptr %2, align 8
  call void @llvm.lifetime.start.p0(i64 8, ptr %3) #3
  %6 = getelementptr inbounds nuw %"class.euf::smt_proof_checker", ptr %5, i32 0, i32 6
  %7 = call noundef nonnull align 8 dereferenceable(8) ptr @_ZN3sat4drat5unitsEv(ptr noundef nonnull align 8 dereferenceable(664) %6)
  store ptr %7, ptr %3, align 8, !tbaa !325
  call void @llvm.lifetime.start.p0(i64 4, ptr %4) #3
  %8 = getelementptr inbounds nuw %"class.euf::smt_proof_checker", ptr %5, i32 0, i32 7
  %9 = call noundef i32 @_ZNK6vectorIN3sat7literalELb0EjE4sizeEv(ptr noundef nonnull align 8 dereferenceable(8) %8)
  store i32 %9, ptr %4, align 4, !tbaa !121
  br label %10

10:                                               ; preds = %23, %1
  %11 = load i32, ptr %4, align 4, !tbaa !121
  %12 = load ptr, ptr %3, align 8, !tbaa !325
  %13 = call noundef i32 @_ZNK6vectorISt4pairIN3sat7literalEPNS1_6clauseEELb0EjE4sizeEv(ptr noundef nonnull align 8 dereferenceable(8) %12)
  %14 = icmp ult i32 %11, %13
  br i1 %14, label %16, label %15

15:                                               ; preds = %10
  call void @llvm.lifetime.end.p0(i64 4, ptr %4) #3
  br label %26

16:                                               ; preds = %10
  %17 = getelementptr inbounds nuw %"class.euf::smt_proof_checker", ptr %5, i32 0, i32 7
  %18 = load ptr, ptr %3, align 8, !tbaa !325
  %19 = load i32, ptr %4, align 4, !tbaa !121
  %20 = call noundef nonnull align 8 dereferenceable(16) ptr @_ZNK6vectorISt4pairIN3sat7literalEPNS1_6clauseEELb0EjEixEj(ptr noundef nonnull align 8 dereferenceable(8) %18, i32 noundef %19)
  %21 = getelementptr inbounds nuw %"struct.std::pair.163", ptr %20, i32 0, i32 0
  %22 = call noundef nonnull align 8 dereferenceable(8) ptr @_ZN6vectorIN3sat7literalELb0EjE9push_backERKS1_(ptr noundef nonnull align 8 dereferenceable(8) %17, ptr noundef nonnull align 4 dereferenceable(4) %21)
  br label %23

23:                                               ; preds = %16
  %24 = load i32, ptr %4, align 4, !tbaa !121
  %25 = add i32 %24, 1
  store i32 %25, ptr %4, align 4, !tbaa !121
  br label %10, !llvm.loop !327

26:                                               ; preds = %15
  call void @llvm.lifetime.end.p0(i64 8, ptr %3) #3
  ret void
}

; Function Attrs: mustprogress uwtable
define hidden noundef zeroext i1 @_ZN3euf17smt_proof_checker9check_rupERK10ref_vectorI4expr11ast_managerE(ptr noundef nonnull align 8 dereferenceable(5076) %0, ptr noundef nonnull align 8 dereferenceable(16) %1) #4 align 2 {
  %3 = alloca i1, align 1
  %4 = alloca ptr, align 8
  %5 = alloca ptr, align 8
  store ptr %0, ptr %4, align 8, !tbaa !141
  store ptr %1, ptr %5, align 8, !tbaa !107
  %6 = load ptr, ptr %4, align 8
  %7 = getelementptr inbounds nuw %"class.euf::smt_proof_checker", ptr %6, i32 0, i32 9
  %8 = load i8, ptr %7, align 8, !tbaa !145, !range !130, !noundef !131
  %9 = trunc i8 %8 to i1
  br i1 %9, label %11, label %10

10:                                               ; preds = %2
  store i1 true, ptr %3, align 1
  br label %20

11:                                               ; preds = %2
  call void @_ZN3euf17smt_proof_checker9add_unitsEv(ptr noundef nonnull align 8 dereferenceable(5076) %6)
  %12 = load ptr, ptr %5, align 8, !tbaa !107
  call void @_ZN3euf17smt_proof_checker9mk_clauseERK10ref_vectorI4expr11ast_managerE(ptr noundef nonnull align 8 dereferenceable(5076) %6, ptr noundef nonnull align 8 dereferenceable(16) %12)
  %13 = getelementptr inbounds nuw %"class.euf::smt_proof_checker", ptr %6, i32 0, i32 6
  %14 = getelementptr inbounds nuw %"class.euf::smt_proof_checker", ptr %6, i32 0, i32 8
  %15 = call noundef i32 @_ZNK6vectorIN3sat7literalELb0EjE4sizeEv(ptr noundef nonnull align 8 dereferenceable(8) %14)
  %16 = getelementptr inbounds nuw %"class.euf::smt_proof_checker", ptr %6, i32 0, i32 8
  %17 = call noundef ptr @_ZNK6vectorIN3sat7literalELb0EjE4dataEv(ptr noundef nonnull align 8 dereferenceable(8) %16)
  %18 = getelementptr inbounds nuw %"class.euf::smt_proof_checker", ptr %6, i32 0, i32 7
  %19 = call noundef zeroext i1 @_ZN3sat4drat7is_drupEjPKNS_7literalER7svectorIS1_jE(ptr noundef nonnull align 8 dereferenceable(664) %13, i32 noundef %15, ptr noundef %17, ptr noundef nonnull align 8 dereferenceable(8) %18)
  store i1 %19, ptr %3, align 1
  br label %20

20:                                               ; preds = %11, %10
  %21 = load i1, ptr %3, align 1
  ret i1 %21
}