; Function Attrs: mustprogress uwtable
define hidden noundef zeroext i1 @_ZN3euf17smt_proof_checker9check_rupERK10ref_vectorI4expr11ast_managerE(ptr noundef nonnull align 8 dereferenceable(5076) %0, ptr noundef nonnull align 8 dereferenceable(16) %1) local_unnamed_addr #3 align 2 {
  %3 = getelementptr inbounds nuw i8, ptr %0, i64 5016
  %4 = load i8, ptr %3, align 8, !tbaa !282, !range !292, !noundef !293
  %5 = trunc nuw i8 %4 to i1
  br i1 %5, label %6, label %48

6:                                                ; preds = %2
  %7 = getelementptr inbounds nuw i8, ptr %0, i64 4952
  %8 = getelementptr inbounds nuw i8, ptr %0, i64 5000
  %9 = load ptr, ptr %8, align 8, !tbaa !283
  %10 = icmp eq ptr %9, null
  br i1 %10, label %_ZNK6vectorIN3sat7literalELb0EjE4sizeEv.exit.i.preheader, label %11

11:                                               ; preds = %6
  %12 = getelementptr inbounds i8, ptr %9, i64 -4
  %13 = load i32, ptr %12, align 4, !tbaa !21
  %14 = zext i32 %13 to i64
  br label %_ZNK6vectorIN3sat7literalELb0EjE4sizeEv.exit.i.preheader

_ZNK6vectorIN3sat7literalELb0EjE4sizeEv.exit.i.preheader: ; preds = %11, %6
  %indvars.iv.i.ph = phi i64 [ 0, %6 ], [ %14, %11 ]
  br label %_ZNK6vectorIN3sat7literalELb0EjE4sizeEv.exit.i

_ZNK6vectorIN3sat7literalELb0EjE4sizeEv.exit.i:   ; preds = %_ZNK6vectorIN3sat7literalELb0EjE4sizeEv.exit.i.preheader, %_ZN6vectorIN3sat7literalELb0EjE9push_backERKS1_.exit.i
  %15 = phi ptr [ %33, %_ZN6vectorIN3sat7literalELb0EjE9push_backERKS1_.exit.i ], [ %9, %_ZNK6vectorIN3sat7literalELb0EjE4sizeEv.exit.i.preheader ]
  %indvars.iv.i = phi i64 [ %indvars.iv.next.i, %_ZN6vectorIN3sat7literalELb0EjE9push_backERKS1_.exit.i ], [ %indvars.iv.i.ph, %_ZNK6vectorIN3sat7literalELb0EjE4sizeEv.exit.i.preheader ]
  %16 = load ptr, ptr %7, align 8, !tbaa !294
  %17 = icmp eq ptr %16, null
  br i1 %17, label %_ZNK6vectorISt4pairIN3sat7literalEPNS1_6clauseEELb0EjE4sizeEv.exit.i, label %18

18:                                               ; preds = %_ZNK6vectorIN3sat7literalELb0EjE4sizeEv.exit.i
  %19 = getelementptr inbounds i8, ptr %16, i64 -4
  %20 = load i32, ptr %19, align 4, !tbaa !21
  %21 = zext i32 %20 to i64
  br label %_ZNK6vectorISt4pairIN3sat7literalEPNS1_6clauseEELb0EjE4sizeEv.exit.i

_ZNK6vectorISt4pairIN3sat7literalEPNS1_6clauseEELb0EjE4sizeEv.exit.i: ; preds = %18, %_ZNK6vectorIN3sat7literalELb0EjE4sizeEv.exit.i
  %.0.i5.i = phi i64 [ %21, %18 ], [ 0, %_ZNK6vectorIN3sat7literalELb0EjE4sizeEv.exit.i ]
  %22 = icmp samesign ult i64 %indvars.iv.i, %.0.i5.i
  br i1 %22, label %23, label %_ZN3euf17smt_proof_checker9add_unitsEv.exit

23:                                               ; preds = %_ZNK6vectorISt4pairIN3sat7literalEPNS1_6clauseEELb0EjE4sizeEv.exit.i
  %24 = getelementptr inbounds nuw %"struct.std::pair.163", ptr %16, i64 %indvars.iv.i
  %25 = icmp eq ptr %15, null
  br i1 %25, label %32, label %26

26:                                               ; preds = %23
  %27 = getelementptr inbounds i8, ptr %15, i64 -4
  %28 = load i32, ptr %27, align 4, !tbaa !21
  %29 = getelementptr inbounds i8, ptr %15, i64 -8
  %30 = load i32, ptr %29, align 4, !tbaa !21
  %31 = icmp eq i32 %28, %30
  br i1 %31, label %32, label %_ZN6vectorIN3sat7literalELb0EjE9push_backERKS1_.exit.i

32:                                               ; preds = %26, %23
  tail call void @_ZN6vectorIN3sat7literalELb0EjE13expand_vectorEv(ptr noundef nonnull align 8 dereferenceable(8) %8)
  %.pre.i.i = load ptr, ptr %8, align 8, !tbaa !283
  %.phi.trans.insert.i.i = getelementptr inbounds i8, ptr %.pre.i.i, i64 -4
  %.pre2.i.i = load i32, ptr %.phi.trans.insert.i.i, align 4, !tbaa !21
  br label %_ZN6vectorIN3sat7literalELb0EjE9push_backERKS1_.exit.i

_ZN6vectorIN3sat7literalELb0EjE9push_backERKS1_.exit.i: ; preds = %32, %26
  %33 = phi ptr [ %.pre.i.i, %32 ], [ %15, %26 ]
  %34 = phi i32 [ %.pre2.i.i, %32 ], [ %28, %26 ]
  %35 = getelementptr inbounds i8, ptr %33, i64 -4
  %36 = zext i32 %34 to i64
  %37 = getelementptr inbounds nuw %"class.sat::literal", ptr %33, i64 %36
  %38 = load i32, ptr %24, align 4, !tbaa !21
  store i32 %38, ptr %37, align 4, !tbaa !21
  %39 = add i32 %34, 1
  store i32 %39, ptr %35, align 4, !tbaa !21
  %indvars.iv.next.i = add nuw nsw i64 %indvars.iv.i, 1
  br label %_ZNK6vectorIN3sat7literalELb0EjE4sizeEv.exit.i, !llvm.loop !295

_ZN3euf17smt_proof_checker9add_unitsEv.exit:      ; preds = %_ZNK6vectorISt4pairIN3sat7literalEPNS1_6clauseEELb0EjE4sizeEv.exit.i
  tail call void @_ZN3euf17smt_proof_checker9mk_clauseERK10ref_vectorI4expr11ast_managerE(ptr noundef nonnull align 8 dereferenceable(5076) %0, ptr noundef nonnull align 8 dereferenceable(16) %1)
  %40 = getelementptr inbounds nuw i8, ptr %0, i64 4336
  %41 = getelementptr inbounds nuw i8, ptr %0, i64 5008
  %42 = load ptr, ptr %41, align 8, !tbaa !283
  %43 = icmp eq ptr %42, null
  br i1 %43, label %_ZNK6vectorIN3sat7literalELb0EjE4sizeEv.exit, label %44

44:                                               ; preds = %_ZN3euf17smt_proof_checker9add_unitsEv.exit
  %45 = getelementptr inbounds i8, ptr %42, i64 -4
  %46 = load i32, ptr %45, align 4, !tbaa !21
  br label %_ZNK6vectorIN3sat7literalELb0EjE4sizeEv.exit

_ZNK6vectorIN3sat7literalELb0EjE4sizeEv.exit:     ; preds = %_ZN3euf17smt_proof_checker9add_unitsEv.exit, %44
  %.0.i = phi i32 [ %46, %44 ], [ 0, %_ZN3euf17smt_proof_checker9add_unitsEv.exit ]
  %47 = tail call noundef zeroext i1 @_ZN3sat4drat7is_drupEjPKNS_7literalER7svectorIS1_jE(ptr noundef nonnull align 8 dereferenceable(664) %40, i32 noundef %.0.i, ptr noundef %42, ptr noundef nonnull align 8 dereferenceable(8) %8)
  br label %48

48:                                               ; preds = %2, %_ZNK6vectorIN3sat7literalELb0EjE4sizeEv.exit
  %.0 = phi i1 [ %47, %_ZNK6vectorIN3sat7literalELb0EjE4sizeEv.exit ], [ true, %2 ]
  ret i1 %.0
}